target datalayout = "e-m:e-p270:32:32-p271:32:32-p272:64:64-i64:64-i128:128-f80:128-n8:16:32:64-S128"
target triple = "x86_64-pc-linux-gnu"

%"class.google::protobuf::TextFormat::Printer" = type { i32, i8, i8, i8, i8, i8, i8, i8, i64, %"class.std::unique_ptr", %"class.std::map", %"class.std::map.5", ptr }
%"class.std::unique_ptr" = type { %"struct.std::__uniq_ptr_data" }
%"struct.std::__uniq_ptr_data" = type { %"class.std::__uniq_ptr_impl" }
%"class.std::__uniq_ptr_impl" = type { %"class.std::tuple" }
%"class.std::tuple" = type { %"struct.std::_Tuple_impl" }
%"struct.std::_Tuple_impl" = type { %"struct.std::_Head_base.1" }
%"struct.std::_Head_base.1" = type { ptr }
%"class.std::map" = type { %"class.std::_Rb_tree" }
%"class.std::_Rb_tree" = type { %"struct.std::_Rb_tree<const google::protobuf::FieldDescriptor *, std::pair<const google::protobuf::FieldDescriptor *const, std::unique_ptr<const google::protobuf::TextFormat::FastFieldValuePrinter>>, std::_Select1st<std::pair<const google::protobuf::FieldDescriptor *const, std::unique_ptr<const google::protobuf::TextFormat::FastFieldValuePrinter>>>, std::less<const google::protobuf::FieldDescriptor *>>::_Rb_tree_impl" }
%"struct.std::_Rb_tree<const google::protobuf::FieldDescriptor *, std::pair<const google::protobuf::FieldDescriptor *const, std::unique_ptr<const google::protobuf::TextFormat::FastFieldValuePrinter>>, std::_Select1st<std::pair<const google::protobuf::FieldDescriptor *const, std::unique_ptr<const google::protobuf::TextFormat::FastFieldValuePrinter>>>, std::less<const google::protobuf::FieldDescriptor *>>::_Rb_tree_impl" = type { [8 x i8], %"struct.std::_Rb_tree_header" }
%"struct.std::_Rb_tree_header" = type { %"struct.std::_Rb_tree_node_base", i64 }
%"struct.std::_Rb_tree_node_base" = type { i32, ptr, ptr, ptr }
%"class.std::map.5" = type { %"class.std::_Rb_tree.6" }
%"class.std::_Rb_tree.6" = type { %"struct.std::_Rb_tree<const google::protobuf::Descriptor *, std::pair<const google::protobuf::Descriptor *const, std::unique_ptr<const google::protobuf::TextFormat::MessagePrinter>>, std::_Select1st<std::pair<const google::protobuf::Descriptor *const, std::unique_ptr<const google::protobuf::TextFormat::MessagePrinter>>>, std::less<const google::protobuf::Descriptor *>>::_Rb_tree_impl" }
%"struct.std::_Rb_tree<const google::protobuf::Descriptor *, std::pair<const google::protobuf::Descriptor *const, std::unique_ptr<const google::protobuf::TextFormat::MessagePrinter>>, std::_Select1st<std::pair<const google::protobuf::Descriptor *const, std::unique_ptr<const google::protobuf::TextFormat::MessagePrinter>>>, std::less<const google::protobuf::Descriptor *>>::_Rb_tree_impl" = type { [8 x i8], %"struct.std::_Rb_tree_header" }

@_ZN6google8protobuf10TextFormat7PrinterC1Ev = hidden unnamed_addr alias void (ptr), ptr @_ZN6google8protobuf10TextFormat7PrinterC2Ev

; Function Attrs: mustprogress uwtable
define hidden noundef zeroext i1 @_ZN6google8protobuf10TextFormat26PrintUnknownFieldsToStringERKNS0_15UnknownFieldSetEPNSt7__cxx1112basic_stringIcSt11char_traitsIcESaIcEEE(ptr noundef nonnull align 8 dereferenceable(24) %0, ptr noundef %1) #4 align 2 personality ptr @__gxx_personality_v0 {
  %3 = alloca ptr, align 8
  %4 = alloca ptr, align 8
  %5 = alloca %"class.google::protobuf::TextFormat::Printer", align 8
  %6 = alloca ptr, align 8
  %7 = alloca i32, align 4
  store ptr %0, ptr %3, align 8, !tbaa !260
  store ptr %1, ptr %4, align 8, !tbaa !8
  call void @llvm.lifetime.start.p0(i64 136, ptr %5) #3
  call void @_ZN6google8protobuf10TextFormat7PrinterC1Ev(ptr noundef nonnull align 8 dereferenceable(136) %5)
  %8 = load ptr, ptr %3, align 8, !tbaa !260
  %9 = load ptr, ptr %4, align 8, !tbaa !8
  %10 = invoke noundef zeroext i1 @_ZNK6google8protobuf10TextFormat7Printer26PrintUnknownFieldsToStringERKNS0_15UnknownFieldSetEPNSt7__cxx1112basic_stringIcSt11char_traitsIcESaIcEEE(ptr noundef nonnull align 8 dereferenceable(136) %5, ptr noundef nonnull align 8 dereferenceable(24) %8, ptr noundef %9)
          to label %11 unwind label %12

11:                                               ; preds = %2
  call void @_ZN6google8protobuf10TextFormat7PrinterD2Ev(ptr noundef nonnull align 8 dereferenceable(136) %5) #3
  call void @llvm.lifetime.end.p0(i64 136, ptr %5) #3
  ret i1 %10

12:                                               ; preds = %2
  %13 = landingpad { ptr, i32 }
          cleanup
  %14 = extractvalue { ptr, i32 } %13, 0
  store ptr %14, ptr %6, align 8
  %15 = extractvalue { ptr, i32 } %13, 1
  store i32 %15, ptr %7, align 4
  call void @_ZN6google8protobuf10TextFormat7PrinterD2Ev(ptr noundef nonnull align 8 dereferenceable(136) %5) #3
  call void @llvm.lifetime.end.p0(i64 136, ptr %5) #3
  br label %16

16:                                               ; preds = %12
  %17 = load ptr, ptr %6, align 8
  %18 = load i32, ptr %7, align 4
  %19 = insertvalue { ptr, i32 } poison, ptr %17, 0
  %20 = insertvalue { ptr, i32 } %19, i32 %18, 1
  resume { ptr, i32 } %20
}