; Function Attrs: mustprogress uwtable
define hidden noundef zeroext i1 @_ZN6google8protobuf10TextFormat26PrintUnknownFieldsToStringERKNS0_15UnknownFieldSetEPNSt7__cxx1112basic_stringIcSt11char_traitsIcESaIcEEE(ptr noundef nonnull readonly align 8 captures(none) dereferenceable(24) %0, ptr noundef %1) local_unnamed_addr #3 align 2 personality ptr @__gxx_personality_v0 {
  %3 = alloca %"class.google::protobuf::TextFormat::Printer", align 8
  call void @llvm.lifetime.start.p0(i64 136, ptr nonnull %3) #31
  %4 = getelementptr inbounds nuw i8, ptr %3, i64 16
  %5 = getelementptr inbounds nuw i8, ptr %3, i64 24
  %6 = getelementptr inbounds nuw i8, ptr %3, i64 40
  store i32 0, ptr %6, align 8, !tbaa !13
  %7 = getelementptr inbounds nuw i8, ptr %3, i64 48
  store ptr null, ptr %7, align 8, !tbaa !18
  %8 = getelementptr inbounds nuw i8, ptr %3, i64 56
  call void @llvm.memset.p0.i64(ptr noundef nonnull align 8 dereferenceable(136) %3, i8 0, i64 11, i1 false)
  call void @llvm.memset.p0.i64(ptr noundef nonnull align 8 dereferenceable(16) %4, i8 0, i64 16, i1 false)
  store ptr %6, ptr %8, align 8, !tbaa !19
  %9 = getelementptr inbounds nuw i8, ptr %3, i64 64
  store ptr %6, ptr %9, align 8, !tbaa !20
  %10 = getelementptr inbounds nuw i8, ptr %3, i64 72
  store i64 0, ptr %10, align 8, !tbaa !21
  %11 = getelementptr inbounds nuw i8, ptr %3, i64 88
  store i32 0, ptr %11, align 8, !tbaa !13
  %12 = getelementptr inbounds nuw i8, ptr %3, i64 96
  store ptr null, ptr %12, align 8, !tbaa !18
  %13 = getelementptr inbounds nuw i8, ptr %3, i64 104
  store ptr %11, ptr %13, align 8, !tbaa !19
  %14 = getelementptr inbounds nuw i8, ptr %3, i64 112
  store ptr %11, ptr %14, align 8, !tbaa !20
  %15 = getelementptr inbounds nuw i8, ptr %3, i64 120
  call void @llvm.memset.p0.i64(ptr noundef nonnull align 8 dereferenceable(16) %15, i8 0, i64 16, i1 false)
  %16 = invoke noalias noundef nonnull dereferenceable(8) ptr @_Znwm(i64 noundef 8) #32
          to label %_ZN6google8protobuf10TextFormat7PrinterC2Ev.exit unwind label %17

17:                                               ; preds = %2
  %18 = landingpad { ptr, i32 }
          cleanup
  %19 = getelementptr inbounds nuw i8, ptr %3, i64 80
  %20 = getelementptr inbounds nuw i8, ptr %3, i64 32
  call void @_ZNSt3mapIPKN6google8protobuf10DescriptorESt10unique_ptrIKNS1_10TextFormat14MessagePrinterESt14default_deleteIS8_EESt4lessIS4_ESaISt4pairIKS4_SB_EEED2Ev(ptr noundef nonnull align 8 dereferenceable(48) %19) #31
  call void @_ZNSt3mapIPKN6google8protobuf15FieldDescriptorESt10unique_ptrIKNS1_10TextFormat21FastFieldValuePrinterESt14default_deleteIS8_EESt4lessIS4_ESaISt4pairIKS4_SB_EEED2Ev(ptr noundef nonnull align 8 dereferenceable(48) %20) #31
  %21 = load ptr, ptr %5, align 8, !tbaa !22
  %.not.i.i = icmp eq ptr %21, null
  br i1 %.not.i.i, label %common.resume, label %_ZNKSt14default_deleteIKN6google8protobuf10TextFormat21FastFieldValuePrinterEEclEPS4_.exit.i.i

_ZNKSt14default_deleteIKN6google8protobuf10TextFormat21FastFieldValuePrinterEEclEPS4_.exit.i.i: ; preds = %17
  %22 = load ptr, ptr %21, align 8, !tbaa !24
  %23 = getelementptr inbounds nuw i8, ptr %22, i64 8
  %24 = load ptr, ptr %23, align 8
  call void %24(ptr noundef nonnull align 8 dereferenceable(8) %21) #31
  br label %common.resume

common.resume:                                    ; preds = %17, %_ZNKSt14default_deleteIKN6google8protobuf10TextFormat21FastFieldValuePrinterEEclEPS4_.exit.i.i, %41
  %common.resume.op = phi { ptr, i32 } [ %42, %41 ], [ %18, %_ZNKSt14default_deleteIKN6google8protobuf10TextFormat21FastFieldValuePrinterEEclEPS4_.exit.i.i ], [ %18, %17 ]
  resume { ptr, i32 } %common.resume.op

_ZN6google8protobuf10TextFormat7PrinterC2Ev.exit: ; preds = %2
  store ptr getelementptr inbounds nuw inrange(-16, 136) (i8, ptr @_ZTVN6google8protobuf10TextFormat7Printer28DebugStringFieldValuePrinterE, i64 16), ptr %16, align 8, !tbaa !24
  store ptr %16, ptr %5, align 8, !tbaa !22
  %25 = invoke noundef zeroext i1 @_ZNK6google8protobuf10TextFormat7Printer26PrintUnknownFieldsToStringERKNS0_15UnknownFieldSetEPNSt7__cxx1112basic_stringIcSt11char_traitsIcESaIcEEE(ptr noundef nonnull align 8 dereferenceable(136) %3, ptr noundef nonnull align 8 dereferenceable(24) %0, ptr noundef %1)
          to label %26 unwind label %41

26:                                               ; preds = %_ZN6google8protobuf10TextFormat7PrinterC2Ev.exit
  %27 = getelementptr inbounds nuw i8, ptr %3, i64 80
  %28 = load ptr, ptr %12, align 8, !tbaa !18
  invoke void @_ZNSt8_Rb_treeIPKN6google8protobuf10DescriptorESt4pairIKS4_St10unique_ptrIKNS1_10TextFormat14MessagePrinterESt14default_deleteISA_EEESt10_Select1stISE_ESt4lessIS4_ESaISE_EE8_M_eraseEPSt13_Rb_tree_nodeISE_E(ptr noundef nonnull align 8 dereferenceable(48) %27, ptr noundef %28)
          to label %_ZNSt3mapIPKN6google8protobuf10DescriptorESt10unique_ptrIKNS1_10TextFormat14MessagePrinterESt14default_deleteIS8_EESt4lessIS4_ESaISt4pairIKS4_SB_EEED2Ev.exit.i unwind label %29

29:                                               ; preds = %26
  %30 = landingpad { ptr, i32 }
          catch ptr null
  %31 = extractvalue { ptr, i32 } %30, 0
  call void @__clang_call_terminate(ptr %31) #33
  unreachable

_ZNSt3mapIPKN6google8protobuf10DescriptorESt10unique_ptrIKNS1_10TextFormat14MessagePrinterESt14default_deleteIS8_EESt4lessIS4_ESaISt4pairIKS4_SB_EEED2Ev.exit.i: ; preds = %26
  %32 = getelementptr inbounds nuw i8, ptr %3, i64 32
  %33 = load ptr, ptr %7, align 8, !tbaa !18
  invoke void @_ZNSt8_Rb_treeIPKN6google8protobuf15FieldDescriptorESt4pairIKS4_St10unique_ptrIKNS1_10TextFormat21FastFieldValuePrinterESt14default_deleteISA_EEESt10_Select1stISE_ESt4lessIS4_ESaISE_EE8_M_eraseEPSt13_Rb_tree_nodeISE_E(ptr noundef nonnull align 8 dereferenceable(48) %32, ptr noundef %33)
          to label %_ZNSt3mapIPKN6google8protobuf15FieldDescriptorESt10unique_ptrIKNS1_10TextFormat21FastFieldValuePrinterESt14default_deleteIS8_EESt4lessIS4_ESaISt4pairIKS4_SB_EEED2Ev.exit.i unwind label %34

34:                                               ; preds = %_ZNSt3mapIPKN6google8protobuf10DescriptorESt10unique_ptrIKNS1_10TextFormat14MessagePrinterESt14default_deleteIS8_EESt4lessIS4_ESaISt4pairIKS4_SB_EEED2Ev.exit.i
  %35 = landingpad { ptr, i32 }
          catch ptr null
  %36 = extractvalue { ptr, i32 } %35, 0
  call void @__clang_call_terminate(ptr %36) #33
  unreachable

_ZNSt3mapIPKN6google8protobuf15FieldDescriptorESt10unique_ptrIKNS1_10TextFormat21FastFieldValuePrinterESt14default_deleteIS8_EESt4lessIS4_ESaISt4pairIKS4_SB_EEED2Ev.exit.i: ; preds = %_ZNSt3mapIPKN6google8protobuf10DescriptorESt10unique_ptrIKNS1_10TextFormat14MessagePrinterESt14default_deleteIS8_EESt4lessIS4_ESaISt4pairIKS4_SB_EEED2Ev.exit.i
  %37 = load ptr, ptr %5, align 8, !tbaa !22
  %.not.i.i3 = icmp eq ptr %37, null
  br i1 %.not.i.i3, label %_ZN6google8protobuf10TextFormat7PrinterD2Ev.exit, label %_ZNKSt14default_deleteIKN6google8protobuf10TextFormat21FastFieldValuePrinterEEclEPS4_.exit.i.i4

_ZNKSt14default_deleteIKN6google8protobuf10TextFormat21FastFieldValuePrinterEEclEPS4_.exit.i.i4: ; preds = %_ZNSt3mapIPKN6google8protobuf15FieldDescriptorESt10unique_ptrIKNS1_10TextFormat21FastFieldValuePrinterESt14default_deleteIS8_EESt4lessIS4_ESaISt4pairIKS4_SB_EEED2Ev.exit.i
  %38 = load ptr, ptr %37, align 8, !tbaa !24
  %39 = getelementptr inbounds nuw i8, ptr %38, i64 8
  %40 = load ptr, ptr %39, align 8
  call void %40(ptr noundef nonnull align 8 dereferenceable(8) %37) #31
  br label %_ZN6google8protobuf10TextFormat7PrinterD2Ev.exit

_ZN6google8protobuf10TextFormat7PrinterD2Ev.exit: ; preds = %_ZNSt3mapIPKN6google8protobuf15FieldDescriptorESt10unique_ptrIKNS1_10TextFormat21FastFieldValuePrinterESt14default_deleteIS8_EESt4lessIS4_ESaISt4pairIKS4_SB_EEED2Ev.exit.i, %_ZNKSt14default_deleteIKN6google8protobuf10TextFormat21FastFieldValuePrinterEEclEPS4_.exit.i.i4
  call void @llvm.lifetime.end.p0(i64 136, ptr nonnull %3) #31
  ret i1 %25

41:                                               ; preds = %_ZN6google8protobuf10TextFormat7PrinterC2Ev.exit
  %42 = landingpad { ptr, i32 }
          cleanup
  call void @_ZN6google8protobuf10TextFormat7PrinterD2Ev(ptr noundef nonnull align 8 dereferenceable(136) %3) #31
  call void @llvm.lifetime.end.p0(i64 136, ptr nonnull %3) #31
  br label %common.resume
}